target datalayout = "e-m:e-p270:32:32-p271:32:32-p272:64:64-i64:64-i128:128-f80:128-n8:16:32:64-S128"
target triple = "x86_64-pc-linux-gnu"

%struct.timeval = type { i64, i64 }
%struct.__va_list_tag = type { i32, i32, ptr, ptr }
%struct._logentry = type { i32, i8, i16, i64, %struct.timeval, i32, [0 x %union.anon] }
%union.anon = type { i8 }
%struct.sockaddr_in6 = type { i16, i16, i32, %struct.in6_addr, i32 }
%struct.in6_addr = type { %union.anon.9 }
%union.anon.9 = type { [4 x i32] }
%struct.logentry_conn_event = type { i32, i32, i32, %struct.sockaddr_in6 }

; Function Attrs: nounwind uwtable
define internal void @_logger_log_conn_event(ptr noundef %0, ptr noundef %1, ptr noundef %2, ptr noundef %3) #0 {
  %5 = alloca ptr, align 8
  %6 = alloca ptr, align 8
  %7 = alloca ptr, align 8
  %8 = alloca ptr, align 8
  %9 = alloca ptr, align 8
  %10 = alloca i32, align 4
  %11 = alloca i32, align 4
  %12 = alloca i32, align 4
  %13 = alloca i32, align 4
  %14 = alloca ptr, align 8
  store ptr %0, ptr %5, align 8, !tbaa !33
  store ptr %1, ptr %6, align 8, !tbaa !30
  store ptr %2, ptr %7, align 8, !tbaa !28
  store ptr %3, ptr %8, align 8, !tbaa !105
  call void @llvm.lifetime.start.p0(i64 8, ptr %9) #11
  %15 = load ptr, ptr %8, align 8, !tbaa !105
  %16 = getelementptr inbounds nuw %struct.__va_list_tag, ptr %15, i32 0, i32 0
  %17 = load i32, ptr %16, align 8
  %18 = icmp ule i32 %17, 40
  br i1 %18, label %19, label %24

19:                                               ; preds = %4
  %20 = getelementptr inbounds nuw %struct.__va_list_tag, ptr %15, i32 0, i32 3
  %21 = load ptr, ptr %20, align 8
  %22 = getelementptr i8, ptr %21, i32 %17
  %23 = add i32 %17, 8
  store i32 %23, ptr %16, align 8
  br label %28

24:                                               ; preds = %4
  %25 = getelementptr inbounds nuw %struct.__va_list_tag, ptr %15, i32 0, i32 2
  %26 = load ptr, ptr %25, align 8
  %27 = getelementptr i8, ptr %26, i32 8
  store ptr %27, ptr %25, align 8
  br label %28

28:                                               ; preds = %24, %19
  %29 = phi ptr [ %22, %19 ], [ %26, %24 ]
  %30 = load ptr, ptr %29, align 8, !tbaa !120
  store ptr %30, ptr %9, align 8, !tbaa !120
  call void @llvm.lifetime.start.p0(i64 4, ptr %10) #11
  %31 = load ptr, ptr %8, align 8, !tbaa !105
  %32 = getelementptr inbounds nuw %struct.__va_list_tag, ptr %31, i32 0, i32 0
  %33 = load i32, ptr %32, align 8
  %34 = icmp ule i32 %33, 40
  br i1 %34, label %35, label %40

35:                                               ; preds = %28
  %36 = getelementptr inbounds nuw %struct.__va_list_tag, ptr %31, i32 0, i32 3
  %37 = load ptr, ptr %36, align 8
  %38 = getelementptr i8, ptr %37, i32 %33
  %39 = add i32 %33, 8
  store i32 %39, ptr %32, align 8
  br label %44

40:                                               ; preds = %28
  %41 = getelementptr inbounds nuw %struct.__va_list_tag, ptr %31, i32 0, i32 2
  %42 = load ptr, ptr %41, align 8
  %43 = getelementptr i8, ptr %42, i32 8
  store ptr %43, ptr %41, align 8
  br label %44

44:                                               ; preds = %40, %35
  %45 = phi ptr [ %38, %35 ], [ %42, %40 ]
  %46 = load i32, ptr %45, align 4, !tbaa !11
  store i32 %46, ptr %10, align 4, !tbaa !11
  call void @llvm.lifetime.start.p0(i64 4, ptr %11) #11
  %47 = load ptr, ptr %8, align 8, !tbaa !105
  %48 = getelementptr inbounds nuw %struct.__va_list_tag, ptr %47, i32 0, i32 0
  %49 = load i32, ptr %48, align 8
  %50 = icmp ule i32 %49, 40
  br i1 %50, label %51, label %56

51:                                               ; preds = %44
  %52 = getelementptr inbounds nuw %struct.__va_list_tag, ptr %47, i32 0, i32 3
  %53 = load ptr, ptr %52, align 8
  %54 = getelementptr i8, ptr %53, i32 %49
  %55 = add i32 %49, 8
  store i32 %55, ptr %48, align 8
  br label %60

56:                                               ; preds = %44
  %57 = getelementptr inbounds nuw %struct.__va_list_tag, ptr %47, i32 0, i32 2
  %58 = load ptr, ptr %57, align 8
  %59 = getelementptr i8, ptr %58, i32 8
  store ptr %59, ptr %57, align 8
  br label %60

60:                                               ; preds = %56, %51
  %61 = phi ptr [ %54, %51 ], [ %58, %56 ]
  %62 = load i32, ptr %61, align 4, !tbaa !11
  store i32 %62, ptr %11, align 4, !tbaa !11
  call void @llvm.lifetime.start.p0(i64 4, ptr %12) #11
  %63 = load ptr, ptr %8, align 8, !tbaa !105
  %64 = getelementptr inbounds nuw %struct.__va_list_tag, ptr %63, i32 0, i32 0
  %65 = load i32, ptr %64, align 8
  %66 = icmp ule i32 %65, 40
  br i1 %66, label %67, label %72

67:                                               ; preds = %60
  %68 = getelementptr inbounds nuw %struct.__va_list_tag, ptr %63, i32 0, i32 3
  %69 = load ptr, ptr %68, align 8
  %70 = getelementptr i8, ptr %69, i32 %65
  %71 = add i32 %65, 8
  store i32 %71, ptr %64, align 8
  br label %76

72:                                               ; preds = %60
  %73 = getelementptr inbounds nuw %struct.__va_list_tag, ptr %63, i32 0, i32 2
  %74 = load ptr, ptr %73, align 8
  %75 = getelementptr i8, ptr %74, i32 8
  store ptr %75, ptr %73, align 8
  br label %76

76:                                               ; preds = %72, %67
  %77 = phi ptr [ %70, %67 ], [ %74, %72 ]
  %78 = load i32, ptr %77, align 4, !tbaa !11
  store i32 %78, ptr %12, align 4, !tbaa !11
  call void @llvm.lifetime.start.p0(i64 4, ptr %13) #11
  %79 = load ptr, ptr %8, align 8, !tbaa !105
  %80 = getelementptr inbounds nuw %struct.__va_list_tag, ptr %79, i32 0, i32 0
  %81 = load i32, ptr %80, align 8
  %82 = icmp ule i32 %81, 40
  br i1 %82, label %83, label %88

83:                                               ; preds = %76
  %84 = getelementptr inbounds nuw %struct.__va_list_tag, ptr %79, i32 0, i32 3
  %85 = load ptr, ptr %84, align 8
  %86 = getelementptr i8, ptr %85, i32 %81
  %87 = add i32 %81, 8
  store i32 %87, ptr %80, align 8
  br label %92

88:                                               ; preds = %76
  %89 = getelementptr inbounds nuw %struct.__va_list_tag, ptr %79, i32 0, i32 2
  %90 = load ptr, ptr %89, align 8
  %91 = getelementptr i8, ptr %90, i32 8
  store ptr %91, ptr %89, align 8
  br label %92

92:                                               ; preds = %88, %83
  %93 = phi ptr [ %86, %83 ], [ %90, %88 ]
  %94 = load i32, ptr %93, align 4, !tbaa !11
  store i32 %94, ptr %13, align 4, !tbaa !11
  call void @llvm.lifetime.start.p0(i64 8, ptr %14) #11
  %95 = load ptr, ptr %5, align 8, !tbaa !33
  %96 = getelementptr inbounds nuw %struct._logentry, ptr %95, i32 0, i32 6
  %97 = getelementptr inbounds [0 x %union.anon], ptr %96, i64 0, i64 0
  store ptr %97, ptr %14, align 8, !tbaa !122
  %98 = load ptr, ptr %14, align 8, !tbaa !122
  %99 = getelementptr inbounds nuw %struct.logentry_conn_event, ptr %98, i32 0, i32 3
  %100 = load ptr, ptr %9, align 8, !tbaa !120
  %101 = load i32, ptr %10, align 4, !tbaa !11
  %102 = zext i32 %101 to i64
  call void @llvm.memcpy.p0.p0.i64(ptr align 4 %99, ptr align 4 %100, i64 %102, i1 false)
  %103 = load i32, ptr %13, align 4, !tbaa !11
  %104 = load ptr, ptr %14, align 8, !tbaa !122
  %105 = getelementptr inbounds nuw %struct.logentry_conn_event, ptr %104, i32 0, i32 2
  store i32 %103, ptr %105, align 4, !tbaa !124
  %106 = load i32, ptr %11, align 4, !tbaa !11
  %107 = load ptr, ptr %14, align 8, !tbaa !122
  %108 = getelementptr inbounds nuw %struct.logentry_conn_event, ptr %107, i32 0, i32 0
  store i32 %106, ptr %108, align 4, !tbaa !126
  %109 = load i32, ptr %12, align 4, !tbaa !11
  %110 = load ptr, ptr %14, align 8, !tbaa !122
  %111 = getelementptr inbounds nuw %struct.logentry_conn_event, ptr %110, i32 0, i32 1
  store i32 %109, ptr %111, align 4, !tbaa !127
  %112 = load ptr, ptr %5, align 8, !tbaa !33
  %113 = getelementptr inbounds nuw %struct._logentry, ptr %112, i32 0, i32 5
  store i32 40, ptr %113, align 8, !tbaa !11
  call void @llvm.lifetime.end.p0(i64 8, ptr %14) #11
  call void @llvm.lifetime.end.p0(i64 4, ptr %13) #11
  call void @llvm.lifetime.end.p0(i64 4, ptr %12) #11
  call void @llvm.lifetime.end.p0(i64 4, ptr %11) #11
  call void @llvm.lifetime.end.p0(i64 4, ptr %10) #11
  call void @llvm.lifetime.end.p0(i64 8, ptr %9) #11
  ret void
}