; Function Attrs: mustprogress nofree norecurse nosync nounwind willreturn memory(readwrite, inaccessiblemem: none) uwtable
define internal void @_logger_log_conn_event(ptr noundef writeonly captures(none) initializes((32, 48)) %0, ptr readnone captures(none) %1, ptr readnone captures(none) %2, ptr noundef captures(none) %3) #14 {
  %5 = load i32, ptr %3, align 8
  %6 = icmp ult i32 %5, 41
  br i1 %6, label %11, label %.thread

.thread:                                          ; preds = %4
  %7 = getelementptr inbounds nuw i8, ptr %3, i64 8
  %8 = load ptr, ptr %7, align 8
  %9 = getelementptr i8, ptr %8, i64 8
  store ptr %9, ptr %7, align 8
  %10 = load ptr, ptr %8, align 8, !tbaa !96
  br label %.thread24

11:                                               ; preds = %4
  %12 = getelementptr inbounds nuw i8, ptr %3, i64 16
  %13 = load ptr, ptr %12, align 8
  %14 = zext nneg i32 %5 to i64
  %15 = getelementptr i8, ptr %13, i64 %14
  %16 = add nuw nsw i32 %5, 8
  store i32 %16, ptr %3, align 8
  %17 = load ptr, ptr %15, align 8, !tbaa !96
  %18 = icmp ult i32 %5, 33
  br i1 %18, label %24, label %.thread24

.thread24:                                        ; preds = %11, %.thread
  %19 = phi ptr [ %10, %.thread ], [ %17, %11 ]
  %20 = getelementptr inbounds nuw i8, ptr %3, i64 8
  %21 = load ptr, ptr %20, align 8
  %22 = getelementptr i8, ptr %21, i64 8
  store ptr %22, ptr %20, align 8
  %23 = load i32, ptr %21, align 4, !tbaa !9
  br label %.thread27

24:                                               ; preds = %11
  %25 = getelementptr inbounds nuw i8, ptr %3, i64 16
  %26 = load ptr, ptr %25, align 8
  %27 = zext nneg i32 %16 to i64
  %28 = getelementptr i8, ptr %26, i64 %27
  %29 = add nuw nsw i32 %5, 16
  store i32 %29, ptr %3, align 8
  %30 = load i32, ptr %28, align 4, !tbaa !9
  %31 = icmp ult i32 %5, 25
  br i1 %31, label %38, label %.thread27

.thread27:                                        ; preds = %24, %.thread24
  %32 = phi i32 [ %23, %.thread24 ], [ %30, %24 ]
  %33 = phi ptr [ %19, %.thread24 ], [ %17, %24 ]
  %34 = getelementptr inbounds nuw i8, ptr %3, i64 8
  %35 = load ptr, ptr %34, align 8
  %36 = getelementptr i8, ptr %35, i64 8
  store ptr %36, ptr %34, align 8
  %37 = load i32, ptr %35, align 4, !tbaa !9
  br label %.thread30

38:                                               ; preds = %24
  %39 = getelementptr inbounds nuw i8, ptr %3, i64 16
  %40 = load ptr, ptr %39, align 8
  %41 = zext nneg i32 %29 to i64
  %42 = getelementptr i8, ptr %40, i64 %41
  %43 = add nuw nsw i32 %5, 24
  store i32 %43, ptr %3, align 8
  %44 = load i32, ptr %42, align 4, !tbaa !9
  %45 = icmp ult i32 %5, 17
  br i1 %45, label %53, label %.thread30

.thread30:                                        ; preds = %38, %.thread27
  %46 = phi i32 [ %37, %.thread27 ], [ %44, %38 ]
  %47 = phi ptr [ %33, %.thread27 ], [ %17, %38 ]
  %48 = phi i32 [ %32, %.thread27 ], [ %30, %38 ]
  %49 = getelementptr inbounds nuw i8, ptr %3, i64 8
  %50 = load ptr, ptr %49, align 8
  %51 = getelementptr i8, ptr %50, i64 8
  store ptr %51, ptr %49, align 8
  %52 = load i32, ptr %50, align 4, !tbaa !9
  br label %67

53:                                               ; preds = %38
  %54 = getelementptr inbounds nuw i8, ptr %3, i64 16
  %55 = load ptr, ptr %54, align 8
  %56 = zext nneg i32 %43 to i64
  %57 = getelementptr i8, ptr %55, i64 %56
  %58 = or disjoint i32 %5, 32
  store i32 %58, ptr %3, align 8
  %59 = load i32, ptr %57, align 4, !tbaa !9
  %60 = icmp samesign ult i32 %58, 41
  br i1 %60, label %61, label %67

61:                                               ; preds = %53
  %62 = getelementptr inbounds nuw i8, ptr %3, i64 16
  %63 = load ptr, ptr %62, align 8
  %64 = zext nneg i32 %58 to i64
  %65 = getelementptr i8, ptr %63, i64 %64
  %66 = add nuw nsw i32 %5, 40
  store i32 %66, ptr %3, align 8
  br label %75

67:                                               ; preds = %.thread30, %53
  %68 = phi i32 [ %52, %.thread30 ], [ %59, %53 ]
  %69 = phi i32 [ %48, %.thread30 ], [ %30, %53 ]
  %70 = phi ptr [ %47, %.thread30 ], [ %17, %53 ]
  %71 = phi i32 [ %46, %.thread30 ], [ %44, %53 ]
  %72 = getelementptr inbounds nuw i8, ptr %3, i64 8
  %73 = load ptr, ptr %72, align 8
  %74 = getelementptr i8, ptr %73, i64 8
  store ptr %74, ptr %72, align 8
  br label %75

75:                                               ; preds = %67, %61
  %76 = phi i32 [ %59, %61 ], [ %68, %67 ]
  %77 = phi i32 [ %30, %61 ], [ %69, %67 ]
  %78 = phi ptr [ %17, %61 ], [ %70, %67 ]
  %79 = phi i32 [ %44, %61 ], [ %71, %67 ]
  %80 = phi ptr [ %65, %61 ], [ %73, %67 ]
  %81 = load i32, ptr %80, align 4, !tbaa !9
  %82 = getelementptr inbounds nuw i8, ptr %0, i64 36
  %83 = getelementptr inbounds nuw i8, ptr %0, i64 48
  %84 = zext i32 %77 to i64
  tail call void @llvm.memcpy.p0.p0.i64(ptr nonnull align 4 %83, ptr align 4 %78, i64 %84, i1 false)
  %85 = getelementptr inbounds nuw i8, ptr %0, i64 44
  store i32 %81, ptr %85, align 4, !tbaa !98
  store i32 %79, ptr %82, align 4, !tbaa !100
  %86 = getelementptr inbounds nuw i8, ptr %0, i64 40
  store i32 %76, ptr %86, align 4, !tbaa !101
  %87 = getelementptr inbounds nuw i8, ptr %0, i64 32
  store i32 40, ptr %87, align 8, !tbaa !9
  ret void
}